target datalayout = "e-m:e-p270:32:32-p271:32:32-p272:64:64-i64:64-i128:128-f80:128-n8:16:32:64-S128"
target triple = "x86_64-pc-linux-gnu"

%struct.AVFilterContext = type { ptr, ptr, ptr, ptr, ptr, i32, ptr, ptr, i32, ptr, ptr, i32, i32, ptr, ptr, ptr, ptr, i32, ptr, i32, i32 }
%struct.VAAPIVPPContext = type { ptr, ptr, ptr, i32, i32, i32, ptr, ptr, %struct._VARectangle, i32, i32, i32, [10 x i32], i32, i32, ptr, ptr }
%struct._VARectangle = type { i16, i16, i16, i16 }
%struct.ScaleVAAPIContext = type { %struct.VAAPIVPPContext, ptr, i32, ptr, ptr, i32, i32, i32, ptr, ptr, ptr, i32, ptr, i32, i32, i32, i32 }
%struct._VAProcPipelineParameterBuffer = type { i32, ptr, i32, ptr, i32, i32, i32, i32, ptr, i32, ptr, i32, ptr, i32, i32, ptr, i32, ptr, i32, i32, i32, %struct._VAProcColorProperties, %struct._VAProcColorProperties, i32, ptr, [16 x i32] }
%struct._VAProcColorProperties = type { i8, i8, i8, i8, i8, [3 x i8] }
%struct.AVFilterLink = type { ptr, ptr, ptr, ptr, i32, i32, i32, i32, %struct.AVRational, i32, i32, i32, %struct.AVChannelLayout, %struct.AVRational, ptr, i32, %struct.AVFilterFormatsConfig, %struct.AVFilterFormatsConfig }
%struct.AVChannelLayout = type { i32, i32, %union.anon.1, ptr }
%union.anon.1 = type { i64 }
%struct.AVRational = type { i32, i32 }
%struct.AVFilterFormatsConfig = type { ptr, ptr, ptr, ptr, ptr }
%struct.AVFrame = type { [8 x ptr], [8 x i32], ptr, i32, i32, i32, i32, i32, %struct.AVRational, i64, i64, %struct.AVRational, i32, ptr, i32, i32, [8 x ptr], ptr, i32, ptr, i32, i32, i32, i32, i32, i32, i32, i64, ptr, i32, ptr, ptr, i64, i64, i64, i64, ptr, %struct.AVChannelLayout, i64 }

@.str.3 = private unnamed_addr constant [32 x i8] c"Filter input: %s, %ux%u (%ld).\0A\00", align 1
@.str.4 = private unnamed_addr constant [43 x i8] c"Filter output: %s, %ux%u (%ld), mode: %s.\0A\00", align 1
@.str.5 = private unnamed_addr constant [8 x i8] c"DEFAULT\00", align 1
@.str.6 = private unnamed_addr constant [5 x i8] c"FAST\00", align 1
@.str.7 = private unnamed_addr constant [3 x i8] c"HQ\00", align 1
@.str.8 = private unnamed_addr constant [14 x i8] c"NL_ANAMORPHIC\00", align 1
@.str.9 = private unnamed_addr constant [8 x i8] c"Invalid\00", align 1

; Function Attrs: nounwind uwtable
define internal ptr @scale_vaapi_mode_name(i32 noundef %0) #2 {
  %2 = alloca ptr, align 8
  %3 = alloca i32, align 4
  store i32 %0, ptr %3, align 4, !tbaa !36
  %4 = load i32, ptr %3, align 4, !tbaa !36
  switch i32 %4, label %9 [
    i32 0, label %5
    i32 256, label %6
    i32 512, label %7
    i32 768, label %8
  ]

5:                                                ; preds = %1
  store ptr @.str.5, ptr %2, align 8
  br label %10

6:                                                ; preds = %1
  store ptr @.str.6, ptr %2, align 8
  br label %10

7:                                                ; preds = %1
  store ptr @.str.7, ptr %2, align 8
  br label %10

8:                                                ; preds = %1
  store ptr @.str.8, ptr %2, align 8
  br label %10

9:                                                ; preds = %1
  store ptr @.str.9, ptr %2, align 8
  br label %10

10:                                               ; preds = %9, %8, %7, %6, %5
  %11 = load ptr, ptr %2, align 8
  ret ptr %11
}

; Function Attrs: nounwind uwtable
define internal i32 @scale_vaapi_filter_frame(ptr noundef %0, ptr noundef %1) #2 {
  %3 = alloca i32, align 4
  %4 = alloca ptr, align 8
  %5 = alloca ptr, align 8
  %6 = alloca ptr, align 8
  %7 = alloca ptr, align 8
  %8 = alloca ptr, align 8
  %9 = alloca ptr, align 8
  %10 = alloca ptr, align 8
  %11 = alloca %struct._VAProcPipelineParameterBuffer, align 8
  %12 = alloca i32, align 4
  %13 = alloca i32, align 4
  store ptr %0, ptr %4, align 8, !tbaa !44
  store ptr %1, ptr %5, align 8, !tbaa !46
  call void @llvm.lifetime.start.p0(i64 8, ptr %6) #6
  %14 = load ptr, ptr %4, align 8, !tbaa !44
  %15 = getelementptr inbounds nuw %struct.AVFilterLink, ptr %14, i32 0, i32 2
  %16 = load ptr, ptr %15, align 8, !tbaa !48
  store ptr %16, ptr %6, align 8, !tbaa !4
  call void @llvm.lifetime.start.p0(i64 8, ptr %7) #6
  %17 = load ptr, ptr %6, align 8, !tbaa !4
  %18 = getelementptr inbounds nuw %struct.AVFilterContext, ptr %17, i32 0, i32 7
  %19 = load ptr, ptr %18, align 8, !tbaa !56
  %20 = getelementptr inbounds ptr, ptr %19, i64 0
  %21 = load ptr, ptr %20, align 8, !tbaa !44
  store ptr %21, ptr %7, align 8, !tbaa !44
  call void @llvm.lifetime.start.p0(i64 8, ptr %8) #6
  %22 = load ptr, ptr %6, align 8, !tbaa !4
  %23 = getelementptr inbounds nuw %struct.AVFilterContext, ptr %22, i32 0, i32 9
  %24 = load ptr, ptr %23, align 8, !tbaa !9
  store ptr %24, ptr %8, align 8, !tbaa !22
  call void @llvm.lifetime.start.p0(i64 8, ptr %9) #6
  %25 = load ptr, ptr %6, align 8, !tbaa !4
  %26 = getelementptr inbounds nuw %struct.AVFilterContext, ptr %25, i32 0, i32 9
  %27 = load ptr, ptr %26, align 8, !tbaa !9
  store ptr %27, ptr %9, align 8, !tbaa !24
  call void @llvm.lifetime.start.p0(i64 8, ptr %10) #6
  store ptr null, ptr %10, align 8, !tbaa !46
  call void @llvm.lifetime.start.p0(i64 224, ptr %11) #6
  call void @llvm.lifetime.start.p0(i64 4, ptr %12) #6
  %28 = load ptr, ptr %6, align 8, !tbaa !4
  %29 = load ptr, ptr %5, align 8, !tbaa !46
  %30 = getelementptr inbounds nuw %struct.AVFrame, ptr %29, i32 0, i32 6
  %31 = load i32, ptr %30, align 4, !tbaa !57
  %32 = call ptr @av_get_pix_fmt_name(i32 noundef %31)
  %33 = load ptr, ptr %5, align 8, !tbaa !46
  %34 = getelementptr inbounds nuw %struct.AVFrame, ptr %33, i32 0, i32 3
  %35 = load i32, ptr %34, align 8, !tbaa !63
  %36 = load ptr, ptr %5, align 8, !tbaa !46
  %37 = getelementptr inbounds nuw %struct.AVFrame, ptr %36, i32 0, i32 4
  %38 = load i32, ptr %37, align 4, !tbaa !64
  %39 = load ptr, ptr %5, align 8, !tbaa !46
  %40 = getelementptr inbounds nuw %struct.AVFrame, ptr %39, i32 0, i32 9
  %41 = load i64, ptr %40, align 8, !tbaa !65
  call void (ptr, i32, ptr, ...) @av_log(ptr noundef %28, i32 noundef 48, ptr noundef @.str.3, ptr noundef %32, i32 noundef %35, i32 noundef %38, i64 noundef %41)
  %42 = load ptr, ptr %8, align 8, !tbaa !22
  %43 = getelementptr inbounds nuw %struct.VAAPIVPPContext, ptr %42, i32 0, i32 14
  %44 = load i32, ptr %43, align 8, !tbaa !66
  %45 = icmp ne i32 %44, 0
  br i1 %45, label %46, label %50

46:                                               ; preds = %2
  %47 = load ptr, ptr %7, align 8, !tbaa !44
  %48 = load ptr, ptr %5, align 8, !tbaa !46
  %49 = call i32 @ff_filter_frame(ptr noundef %47, ptr noundef %48)
  store i32 %49, ptr %3, align 4
  store i32 1, ptr %13, align 4
  br label %196

50:                                               ; preds = %2
  %51 = load ptr, ptr %8, align 8, !tbaa !22
  %52 = getelementptr inbounds nuw %struct.VAAPIVPPContext, ptr %51, i32 0, i32 5
  %53 = load i32, ptr %52, align 8, !tbaa !67
  %54 = icmp eq i32 %53, -1
  br i1 %54, label %55, label %56

55:                                               ; preds = %50
  store i32 -22, ptr %3, align 4
  store i32 1, ptr %13, align 4
  br label %196

56:                                               ; preds = %50
  %57 = load ptr, ptr %7, align 8, !tbaa !44
  %58 = load ptr, ptr %8, align 8, !tbaa !22
  %59 = getelementptr inbounds nuw %struct.VAAPIVPPContext, ptr %58, i32 0, i32 10
  %60 = load i32, ptr %59, align 4, !tbaa !68
  %61 = load ptr, ptr %8, align 8, !tbaa !22
  %62 = getelementptr inbounds nuw %struct.VAAPIVPPContext, ptr %61, i32 0, i32 11
  %63 = load i32, ptr %62, align 8, !tbaa !69
  %64 = call ptr @ff_get_video_buffer(ptr noundef %57, i32 noundef %60, i32 noundef %63)
  store ptr %64, ptr %10, align 8, !tbaa !46
  %65 = load ptr, ptr %10, align 8, !tbaa !46
  %66 = icmp ne ptr %65, null
  br i1 %66, label %68, label %67

67:                                               ; preds = %56
  store i32 -12, ptr %12, align 4, !tbaa !36
  br label %194

68:                                               ; preds = %56
  %69 = load ptr, ptr %10, align 8, !tbaa !46
  %70 = load ptr, ptr %5, align 8, !tbaa !46
  %71 = call i32 @av_frame_copy_props(ptr noundef %69, ptr noundef %70)
  store i32 %71, ptr %12, align 4, !tbaa !36
  %72 = load i32, ptr %12, align 4, !tbaa !36
  %73 = icmp slt i32 %72, 0
  br i1 %73, label %74, label %75

74:                                               ; preds = %68
  br label %194

75:                                               ; preds = %68
  %76 = load ptr, ptr %10, align 8, !tbaa !46
  %77 = getelementptr inbounds nuw %struct.AVFrame, ptr %76, i32 0, i32 3
  %78 = load i32, ptr %77, align 8, !tbaa !63
  %79 = load ptr, ptr %5, align 8, !tbaa !46
  %80 = getelementptr inbounds nuw %struct.AVFrame, ptr %79, i32 0, i32 3
  %81 = load i32, ptr %80, align 8, !tbaa !63
  %82 = icmp ne i32 %78, %81
  br i1 %82, label %91, label %83

83:                                               ; preds = %75
  %84 = load ptr, ptr %10, align 8, !tbaa !46
  %85 = getelementptr inbounds nuw %struct.AVFrame, ptr %84, i32 0, i32 4
  %86 = load i32, ptr %85, align 4, !tbaa !64
  %87 = load ptr, ptr %5, align 8, !tbaa !46
  %88 = getelementptr inbounds nuw %struct.AVFrame, ptr %87, i32 0, i32 4
  %89 = load i32, ptr %88, align 4, !tbaa !64
  %90 = icmp ne i32 %86, %89
  br i1 %90, label %91, label %96

91:                                               ; preds = %83, %75
  %92 = load ptr, ptr %10, align 8, !tbaa !46
  %93 = getelementptr inbounds nuw %struct.AVFrame, ptr %92, i32 0, i32 19
  %94 = load ptr, ptr %10, align 8, !tbaa !46
  %95 = getelementptr inbounds nuw %struct.AVFrame, ptr %94, i32 0, i32 20
  call void @av_frame_side_data_remove_by_props(ptr noundef %93, ptr noundef %95, i32 noundef 4)
  br label %96

96:                                               ; preds = %91, %83
  %97 = load ptr, ptr %9, align 8, !tbaa !24
  %98 = getelementptr inbounds nuw %struct.ScaleVAAPIContext, ptr %97, i32 0, i32 13
  %99 = load i32, ptr %98, align 8, !tbaa !37
  %100 = icmp ne i32 %99, 2
  br i1 %100, label %101, label %107

101:                                              ; preds = %96
  %102 = load ptr, ptr %9, align 8, !tbaa !24
  %103 = getelementptr inbounds nuw %struct.ScaleVAAPIContext, ptr %102, i32 0, i32 13
  %104 = load i32, ptr %103, align 8, !tbaa !37
  %105 = load ptr, ptr %10, align 8, !tbaa !46
  %106 = getelementptr inbounds nuw %struct.AVFrame, ptr %105, i32 0, i32 23
  store i32 %104, ptr %106, align 4, !tbaa !70
  br label %107

107:                                              ; preds = %101, %96
  %108 = load ptr, ptr %9, align 8, !tbaa !24
  %109 = getelementptr inbounds nuw %struct.ScaleVAAPIContext, ptr %108, i32 0, i32 14
  %110 = load i32, ptr %109, align 4, !tbaa !39
  %111 = icmp ne i32 %110, 2
  br i1 %111, label %112, label %118

112:                                              ; preds = %107
  %113 = load ptr, ptr %9, align 8, !tbaa !24
  %114 = getelementptr inbounds nuw %struct.ScaleVAAPIContext, ptr %113, i32 0, i32 14
  %115 = load i32, ptr %114, align 4, !tbaa !39
  %116 = load ptr, ptr %10, align 8, !tbaa !46
  %117 = getelementptr inbounds nuw %struct.AVFrame, ptr %116, i32 0, i32 24
  store i32 %115, ptr %117, align 8, !tbaa !71
  br label %118

118:                                              ; preds = %112, %107
  %119 = load ptr, ptr %9, align 8, !tbaa !24
  %120 = getelementptr inbounds nuw %struct.ScaleVAAPIContext, ptr %119, i32 0, i32 15
  %121 = load i32, ptr %120, align 8, !tbaa !41
  %122 = icmp ne i32 %121, 2
  br i1 %122, label %123, label %129

123:                                              ; preds = %118
  %124 = load ptr, ptr %9, align 8, !tbaa !24
  %125 = getelementptr inbounds nuw %struct.ScaleVAAPIContext, ptr %124, i32 0, i32 15
  %126 = load i32, ptr %125, align 8, !tbaa !41
  %127 = load ptr, ptr %10, align 8, !tbaa !46
  %128 = getelementptr inbounds nuw %struct.AVFrame, ptr %127, i32 0, i32 25
  store i32 %126, ptr %128, align 4, !tbaa !72
  br label %129

129:                                              ; preds = %123, %118
  %130 = load ptr, ptr %9, align 8, !tbaa !24
  %131 = getelementptr inbounds nuw %struct.ScaleVAAPIContext, ptr %130, i32 0, i32 11
  %132 = load i32, ptr %131, align 8, !tbaa !73
  %133 = icmp ne i32 %132, 0
  br i1 %133, label %134, label %140

134:                                              ; preds = %129
  %135 = load ptr, ptr %9, align 8, !tbaa !24
  %136 = getelementptr inbounds nuw %struct.ScaleVAAPIContext, ptr %135, i32 0, i32 11
  %137 = load i32, ptr %136, align 8, !tbaa !73
  %138 = load ptr, ptr %10, align 8, !tbaa !46
  %139 = getelementptr inbounds nuw %struct.AVFrame, ptr %138, i32 0, i32 22
  store i32 %137, ptr %139, align 8, !tbaa !74
  br label %140

140:                                              ; preds = %134, %129
  %141 = load ptr, ptr %9, align 8, !tbaa !24
  %142 = getelementptr inbounds nuw %struct.ScaleVAAPIContext, ptr %141, i32 0, i32 16
  %143 = load i32, ptr %142, align 4, !tbaa !43
  %144 = icmp ne i32 %143, 0
  br i1 %144, label %145, label %151

145:                                              ; preds = %140
  %146 = load ptr, ptr %9, align 8, !tbaa !24
  %147 = getelementptr inbounds nuw %struct.ScaleVAAPIContext, ptr %146, i32 0, i32 16
  %148 = load i32, ptr %147, align 4, !tbaa !43
  %149 = load ptr, ptr %10, align 8, !tbaa !46
  %150 = getelementptr inbounds nuw %struct.AVFrame, ptr %149, i32 0, i32 26
  store i32 %148, ptr %150, align 8, !tbaa !75
  br label %151

151:                                              ; preds = %145, %140
  %152 = load ptr, ptr %6, align 8, !tbaa !4
  %153 = load ptr, ptr %5, align 8, !tbaa !46
  %154 = load ptr, ptr %10, align 8, !tbaa !46
  %155 = call i32 @ff_vaapi_vpp_init_params(ptr noundef %152, ptr noundef %11, ptr noundef %153, ptr noundef %154)
  store i32 %155, ptr %12, align 4, !tbaa !36
  %156 = load i32, ptr %12, align 4, !tbaa !36
  %157 = icmp slt i32 %156, 0
  br i1 %157, label %158, label %159

158:                                              ; preds = %151
  br label %194

159:                                              ; preds = %151
  %160 = load ptr, ptr %9, align 8, !tbaa !24
  %161 = getelementptr inbounds nuw %struct.ScaleVAAPIContext, ptr %160, i32 0, i32 2
  %162 = load i32, ptr %161, align 8, !tbaa !76
  %163 = getelementptr inbounds nuw %struct._VAProcPipelineParameterBuffer, ptr %11, i32 0, i32 7
  %164 = load i32, ptr %163, align 4, !tbaa !77
  %165 = or i32 %164, %162
  store i32 %165, ptr %163, align 4, !tbaa !77
  %166 = load ptr, ptr %6, align 8, !tbaa !4
  %167 = load ptr, ptr %10, align 8, !tbaa !46
  %168 = call i32 @ff_vaapi_vpp_render_picture(ptr noundef %166, ptr noundef %11, ptr noundef %167)
  store i32 %168, ptr %12, align 4, !tbaa !36
  %169 = load i32, ptr %12, align 4, !tbaa !36
  %170 = icmp slt i32 %169, 0
  br i1 %170, label %171, label %172

171:                                              ; preds = %159
  br label %194

172:                                              ; preds = %159
  call void @av_frame_free(ptr noundef %5)
  %173 = load ptr, ptr %6, align 8, !tbaa !4
  %174 = load ptr, ptr %10, align 8, !tbaa !46
  %175 = getelementptr inbounds nuw %struct.AVFrame, ptr %174, i32 0, i32 6
  %176 = load i32, ptr %175, align 4, !tbaa !57
  %177 = call ptr @av_get_pix_fmt_name(i32 noundef %176)
  %178 = load ptr, ptr %10, align 8, !tbaa !46
  %179 = getelementptr inbounds nuw %struct.AVFrame, ptr %178, i32 0, i32 3
  %180 = load i32, ptr %179, align 8, !tbaa !63
  %181 = load ptr, ptr %10, align 8, !tbaa !46
  %182 = getelementptr inbounds nuw %struct.AVFrame, ptr %181, i32 0, i32 4
  %183 = load i32, ptr %182, align 4, !tbaa !64
  %184 = load ptr, ptr %10, align 8, !tbaa !46
  %185 = getelementptr inbounds nuw %struct.AVFrame, ptr %184, i32 0, i32 9
  %186 = load i64, ptr %185, align 8, !tbaa !65
  %187 = load ptr, ptr %9, align 8, !tbaa !24
  %188 = getelementptr inbounds nuw %struct.ScaleVAAPIContext, ptr %187, i32 0, i32 2
  %189 = load i32, ptr %188, align 8, !tbaa !76
  %190 = call ptr @scale_vaapi_mode_name(i32 noundef %189)
  call void (ptr, i32, ptr, ...) @av_log(ptr noundef %173, i32 noundef 48, ptr noundef @.str.4, ptr noundef %177, i32 noundef %180, i32 noundef %183, i64 noundef %186, ptr noundef %190)
  %191 = load ptr, ptr %7, align 8, !tbaa !44
  %192 = load ptr, ptr %10, align 8, !tbaa !46
  %193 = call i32 @ff_filter_frame(ptr noundef %191, ptr noundef %192)
  store i32 %193, ptr %3, align 4
  store i32 1, ptr %13, align 4
  br label %196

194:                                              ; preds = %171, %158, %74, %67
  call void @av_frame_free(ptr noundef %5)
  call void @av_frame_free(ptr noundef %10)
  %195 = load i32, ptr %12, align 4, !tbaa !36
  store i32 %195, ptr %3, align 4
  store i32 1, ptr %13, align 4
  br label %196

196:                                              ; preds = %194, %172, %55, %46
  call void @llvm.lifetime.end.p0(i64 4, ptr %12) #6
  call void @llvm.lifetime.end.p0(i64 224, ptr %11) #6
  call void @llvm.lifetime.end.p0(i64 8, ptr %10) #6
  call void @llvm.lifetime.end.p0(i64 8, ptr %9) #6
  call void @llvm.lifetime.end.p0(i64 8, ptr %8) #6
  call void @llvm.lifetime.end.p0(i64 8, ptr %7) #6
  call void @llvm.lifetime.end.p0(i64 8, ptr %6) #6
  %197 = load i32, ptr %3, align 4
  ret i32 %197
}