; Function Attrs: nounwind uwtable
define internal i32 @scale_vaapi_filter_frame(ptr noundef readonly captures(none) %0, ptr noundef %1) #2 {
  %3 = alloca ptr, align 8
  %4 = alloca ptr, align 8
  %5 = alloca %struct._VAProcPipelineParameterBuffer, align 8
  store ptr %1, ptr %3, align 8, !tbaa !37
  %6 = getelementptr inbounds nuw i8, ptr %0, i64 16
  %7 = load ptr, ptr %6, align 8, !tbaa !39
  %8 = getelementptr inbounds nuw i8, ptr %7, i64 56
  %9 = load ptr, ptr %8, align 8, !tbaa !48
  %10 = load ptr, ptr %9, align 8, !tbaa !49
  %11 = getelementptr inbounds nuw i8, ptr %7, i64 72
  %12 = load ptr, ptr %11, align 8, !tbaa !4
  call void @llvm.lifetime.start.p0(i64 8, ptr nonnull %4) #6
  call void @llvm.lifetime.start.p0(i64 224, ptr nonnull %5) #6
  %13 = getelementptr inbounds nuw i8, ptr %1, i64 116
  %14 = load i32, ptr %13, align 4, !tbaa !51
  %15 = tail call ptr @av_get_pix_fmt_name(i32 noundef %14) #6
  %16 = getelementptr inbounds nuw i8, ptr %1, i64 104
  %17 = load i32, ptr %16, align 8, !tbaa !57
  %18 = getelementptr inbounds nuw i8, ptr %1, i64 108
  %19 = load i32, ptr %18, align 4, !tbaa !58
  %20 = getelementptr inbounds nuw i8, ptr %1, i64 136
  %21 = load i64, ptr %20, align 8, !tbaa !59
  tail call void (ptr, i32, ptr, ...) @av_log(ptr noundef %7, i32 noundef 48, ptr noundef nonnull @.str.3, ptr noundef %15, i32 noundef %17, i32 noundef %19, i64 noundef %21) #6
  %22 = getelementptr inbounds nuw i8, ptr %12, i64 120
  %23 = load i32, ptr %22, align 8, !tbaa !60
  %.not = icmp eq i32 %23, 0
  br i1 %.not, label %26, label %24

24:                                               ; preds = %2
  %25 = tail call i32 @ff_filter_frame(ptr noundef %10, ptr noundef nonnull %1) #6
  br label %101

26:                                               ; preds = %2
  %27 = getelementptr inbounds nuw i8, ptr %12, i64 32
  %28 = load i32, ptr %27, align 8, !tbaa !61
  %29 = icmp eq i32 %28, -1
  br i1 %29, label %101, label %30

30:                                               ; preds = %26
  %31 = getelementptr inbounds nuw i8, ptr %12, i64 68
  %32 = load i32, ptr %31, align 4, !tbaa !62
  %33 = getelementptr inbounds nuw i8, ptr %12, i64 72
  %34 = load i32, ptr %33, align 8, !tbaa !63
  %35 = tail call ptr @ff_get_video_buffer(ptr noundef %10, i32 noundef %32, i32 noundef %34) #6
  store ptr %35, ptr %4, align 8, !tbaa !37
  %.not41 = icmp eq ptr %35, null
  br i1 %.not41, label %100, label %36

36:                                               ; preds = %30
  %37 = tail call i32 @av_frame_copy_props(ptr noundef nonnull %35, ptr noundef nonnull %1) #6
  %38 = icmp slt i32 %37, 0
  br i1 %38, label %100, label %39

39:                                               ; preds = %36
  %40 = getelementptr inbounds nuw i8, ptr %35, i64 104
  %41 = load i32, ptr %40, align 8, !tbaa !57
  %42 = load i32, ptr %16, align 8, !tbaa !57
  %.not42 = icmp eq i32 %41, %42
  br i1 %.not42, label %43, label %47

43:                                               ; preds = %39
  %44 = getelementptr inbounds nuw i8, ptr %35, i64 108
  %45 = load i32, ptr %44, align 4, !tbaa !58
  %46 = load i32, ptr %18, align 4, !tbaa !58
  %.not43 = icmp eq i32 %45, %46
  br i1 %.not43, label %50, label %47

47:                                               ; preds = %43, %39
  %48 = getelementptr inbounds nuw i8, ptr %35, i64 264
  %49 = getelementptr inbounds nuw i8, ptr %35, i64 272
  tail call void @av_frame_side_data_remove_by_props(ptr noundef nonnull %48, ptr noundef nonnull %49, i32 noundef 4) #6
  br label %50

50:                                               ; preds = %47, %43
  %51 = getelementptr inbounds nuw i8, ptr %12, i64 232
  %52 = load i32, ptr %51, align 8, !tbaa !30
  %.not44 = icmp eq i32 %52, 2
  br i1 %.not44, label %55, label %53

53:                                               ; preds = %50
  %54 = getelementptr inbounds nuw i8, ptr %35, i64 284
  store i32 %52, ptr %54, align 4, !tbaa !64
  br label %55

55:                                               ; preds = %53, %50
  %56 = getelementptr inbounds nuw i8, ptr %12, i64 236
  %57 = load i32, ptr %56, align 4, !tbaa !32
  %.not45 = icmp eq i32 %57, 2
  br i1 %.not45, label %60, label %58

58:                                               ; preds = %55
  %59 = getelementptr inbounds nuw i8, ptr %35, i64 288
  store i32 %57, ptr %59, align 8, !tbaa !65
  br label %60

60:                                               ; preds = %58, %55
  %61 = getelementptr inbounds nuw i8, ptr %12, i64 240
  %62 = load i32, ptr %61, align 8, !tbaa !34
  %.not46 = icmp eq i32 %62, 2
  br i1 %.not46, label %65, label %63

63:                                               ; preds = %60
  %64 = getelementptr inbounds nuw i8, ptr %35, i64 292
  store i32 %62, ptr %64, align 4, !tbaa !66
  br label %65

65:                                               ; preds = %63, %60
  %66 = getelementptr inbounds nuw i8, ptr %12, i64 216
  %67 = load i32, ptr %66, align 8, !tbaa !67
  %.not47 = icmp eq i32 %67, 0
  br i1 %.not47, label %70, label %68

68:                                               ; preds = %65
  %69 = getelementptr inbounds nuw i8, ptr %35, i64 280
  store i32 %67, ptr %69, align 8, !tbaa !68
  br label %70

70:                                               ; preds = %68, %65
  %71 = getelementptr inbounds nuw i8, ptr %12, i64 244
  %72 = load i32, ptr %71, align 4, !tbaa !36
  %.not48 = icmp eq i32 %72, 0
  br i1 %.not48, label %75, label %73

73:                                               ; preds = %70
  %74 = getelementptr inbounds nuw i8, ptr %35, i64 296
  store i32 %72, ptr %74, align 8, !tbaa !69
  br label %75

75:                                               ; preds = %73, %70
  %76 = call i32 @ff_vaapi_vpp_init_params(ptr noundef nonnull %7, ptr noundef nonnull %5, ptr noundef nonnull %1, ptr noundef nonnull %35) #6
  %77 = icmp slt i32 %76, 0
  br i1 %77, label %100, label %78

78:                                               ; preds = %75
  %79 = getelementptr inbounds nuw i8, ptr %12, i64 152
  %80 = load i32, ptr %79, align 8, !tbaa !70
  %81 = getelementptr inbounds nuw i8, ptr %5, i64 44
  %82 = load i32, ptr %81, align 4, !tbaa !71
  %83 = or i32 %82, %80
  store i32 %83, ptr %81, align 4, !tbaa !71
  %84 = call i32 @ff_vaapi_vpp_render_picture(ptr noundef nonnull %7, ptr noundef nonnull %5, ptr noundef nonnull %35) #6
  %85 = icmp slt i32 %84, 0
  br i1 %85, label %100, label %86

86:                                               ; preds = %78
  call void @av_frame_free(ptr noundef nonnull %3) #6
  %87 = getelementptr inbounds nuw i8, ptr %35, i64 116
  %88 = load i32, ptr %87, align 4, !tbaa !51
  %89 = call ptr @av_get_pix_fmt_name(i32 noundef %88) #6
  %90 = load i32, ptr %40, align 8, !tbaa !57
  %91 = getelementptr inbounds nuw i8, ptr %35, i64 108
  %92 = load i32, ptr %91, align 4, !tbaa !58
  %93 = getelementptr inbounds nuw i8, ptr %35, i64 136
  %94 = load i64, ptr %93, align 8, !tbaa !59
  %95 = load i32, ptr %79, align 8, !tbaa !70
  %96 = call i32 @llvm.fshl.i32(i32 %95, i32 %95, i32 24)
  %97 = icmp ult i32 %96, 4
  br i1 %97, label %switch.lookup, label %scale_vaapi_mode_name.exit

switch.lookup:                                    ; preds = %86
  %98 = zext nneg i32 %96 to i64
  %switch.gep = getelementptr inbounds nuw [4 x ptr], ptr @switch.table.scale_vaapi_filter_frame, i64 0, i64 %98
  %switch.load = load ptr, ptr %switch.gep, align 8
  br label %scale_vaapi_mode_name.exit

scale_vaapi_mode_name.exit:                       ; preds = %86, %switch.lookup
  %.0.i = phi ptr [ %switch.load, %switch.lookup ], [ @.str.9, %86 ]
  call void (ptr, i32, ptr, ...) @av_log(ptr noundef nonnull %7, i32 noundef 48, ptr noundef nonnull @.str.4, ptr noundef %89, i32 noundef %90, i32 noundef %92, i64 noundef %94, ptr noundef nonnull %.0.i) #6
  %99 = call i32 @ff_filter_frame(ptr noundef %10, ptr noundef nonnull %35) #6
  br label %101

100:                                              ; preds = %30, %78, %75, %36
  %.0 = phi i32 [ %37, %36 ], [ %76, %75 ], [ %84, %78 ], [ -12, %30 ]
  call void @av_frame_free(ptr noundef nonnull %3) #6
  call void @av_frame_free(ptr noundef nonnull %4) #6
  br label %101

101:                                              ; preds = %26, %100, %scale_vaapi_mode_name.exit, %24
  %.031 = phi i32 [ %25, %24 ], [ %.0, %100 ], [ %99, %scale_vaapi_mode_name.exit ], [ -22, %26 ]
  call void @llvm.lifetime.end.p0(i64 224, ptr nonnull %5) #6
  call void @llvm.lifetime.end.p0(i64 8, ptr nonnull %4) #6
  ret i32 %.031
}